target datalayout = "e-m:e-p270:32:32-p271:32:32-p272:64:64-i64:64-i128:128-f80:128-n8:16:32:64-S128"
target triple = "x86_64-pc-linux-gnu"

%struct.GVJ_s = type { ptr, ptr, ptr, ptr, ptr, ptr, i32, ptr, ptr, ptr, ptr, i64, i64, ptr, i32, %struct.gvplugin_active_render_s, %struct.gvplugin_active_device_s, %struct.gvplugin_active_loadimage_t, ptr, %struct.pointf_s, i8, ptr, i32, ptr, i8, ptr, i32, i32, i32, %struct.point, %struct.point, %struct.point, %struct.point, %struct.point, i32, %struct.boxf, %struct.pointf_s, %struct.boxf, %struct.boxf, %struct.pointf_s, %struct.pointf_s, double, i32, %struct.pointf_s, %struct.boxf, %struct.pointf_s, %struct.pointf_s, i32, i32, %struct.box, %struct.box, %struct.pointf_s, %struct.pointf_s, %struct.pointf_s, i8, i8, i8, i8, i8, i8, %struct.pointf_s, %struct.pointf_s, ptr, ptr, ptr, ptr, ptr, ptr, i64, ptr }
%struct.gvplugin_active_render_s = type { ptr, i32, ptr, ptr }
%struct.gvplugin_active_device_s = type { ptr, i32, ptr, ptr }
%struct.gvplugin_active_loadimage_t = type { ptr, i32, ptr }
%struct.point = type { i32, i32 }
%struct.boxf = type { %struct.pointf_s, %struct.pointf_s }
%struct.box = type { %struct.point, %struct.point }
%struct.pointf_s = type { double, double }
%struct.obj_state_s = type { ptr, i32, %union.anon, i32, %struct.color_s, %struct.color_s, %struct.color_s, i32, double, i32, i32, double, ptr, double, double, double, ptr, ptr, ptr, ptr, ptr, ptr, ptr, ptr, ptr, ptr, ptr, ptr, ptr, ptr, ptr, ptr, ptr, i16, i32, i64, ptr, i64, ptr, ptr, i32, ptr, i32, ptr }
%union.anon = type { ptr }
%struct.color_s = type { %union.anon.0, i32 }
%union.anon.0 = type { [4 x double] }

@stderr = external global ptr, align 8
@.str.41 = private unnamed_addr constant [49 x i8] c"out of memory when trying to allocate %zu bytes\0A\00", align 1

; Function Attrs: inlinehint nounwind uwtable
define internal ptr @gv_strdup(ptr noundef %0) #3 {
  %2 = alloca ptr, align 8
  %3 = alloca ptr, align 8
  store ptr %0, ptr %2, align 8, !tbaa !9
  call void @llvm.lifetime.start.p0(i64 8, ptr %3) #15
  %4 = load ptr, ptr %2, align 8, !tbaa !9
  %5 = call noalias ptr @strdup(ptr noundef %4) #15
  store ptr %5, ptr %3, align 8, !tbaa !9
  %6 = load ptr, ptr %3, align 8, !tbaa !9
  %7 = icmp eq ptr %6, null
  br i1 %7, label %8, label %14

8:                                                ; preds = %1
  %9 = load ptr, ptr @stderr, align 8, !tbaa !68
  %10 = load ptr, ptr %2, align 8, !tbaa !9
  %11 = call i64 @strlen(ptr noundef %10) #16
  %12 = add i64 %11, 1
  %13 = call i32 (ptr, ptr, ...) @fprintf(ptr noundef %9, ptr noundef @.str.41, i64 noundef %12) #15
  call void @graphviz_exit(i32 noundef 1) #17
  unreachable

14:                                               ; preds = %1
  %15 = load ptr, ptr %3, align 8, !tbaa !9
  call void @llvm.lifetime.end.p0(i64 8, ptr %3) #15
  ret ptr %15
}

; Function Attrs: nounwind uwtable
define i32 @initMapData(ptr noundef %0, ptr noundef %1, ptr noundef %2, ptr noundef %3, ptr noundef %4, ptr noundef %5, ptr noundef %6) #0 {
  %8 = alloca ptr, align 8
  %9 = alloca ptr, align 8
  %10 = alloca ptr, align 8
  %11 = alloca ptr, align 8
  %12 = alloca ptr, align 8
  %13 = alloca ptr, align 8
  %14 = alloca ptr, align 8
  %15 = alloca ptr, align 8
  %16 = alloca i32, align 4
  %17 = alloca i32, align 4
  store ptr %0, ptr %8, align 8, !tbaa !12
  store ptr %1, ptr %9, align 8, !tbaa !9
  store ptr %2, ptr %10, align 8, !tbaa !9
  store ptr %3, ptr %11, align 8, !tbaa !9
  store ptr %4, ptr %12, align 8, !tbaa !9
  store ptr %5, ptr %13, align 8, !tbaa !9
  store ptr %6, ptr %14, align 8, !tbaa !8
  call void @llvm.lifetime.start.p0(i64 8, ptr %15) #15
  %18 = load ptr, ptr %8, align 8, !tbaa !12
  %19 = getelementptr inbounds nuw %struct.GVJ_s, ptr %18, i32 0, i32 4
  %20 = load ptr, ptr %19, align 8, !tbaa !16
  store ptr %20, ptr %15, align 8, !tbaa !14
  call void @llvm.lifetime.start.p0(i64 4, ptr %16) #15
  %21 = load ptr, ptr %8, align 8, !tbaa !12
  %22 = getelementptr inbounds nuw %struct.GVJ_s, ptr %21, i32 0, i32 26
  %23 = load i32, ptr %22, align 8, !tbaa !66
  store i32 %23, ptr %16, align 4, !tbaa !44
  call void @llvm.lifetime.start.p0(i64 4, ptr %17) #15
  store i32 0, ptr %17, align 4, !tbaa !44
  %24 = load i32, ptr %16, align 4, !tbaa !44
  %25 = and i32 %24, 32768
  %26 = icmp ne i32 %25, 0
  br i1 %26, label %27, label %34

27:                                               ; preds = %7
  %28 = load ptr, ptr %9, align 8, !tbaa !9
  %29 = icmp ne ptr %28, null
  br i1 %29, label %30, label %34

30:                                               ; preds = %27
  %31 = load ptr, ptr %9, align 8, !tbaa !9
  %32 = load ptr, ptr %15, align 8, !tbaa !14
  %33 = getelementptr inbounds nuw %struct.obj_state_s, ptr %32, i32 0, i32 16
  store ptr %31, ptr %33, align 8, !tbaa !67
  br label %34

34:                                               ; preds = %30, %27, %7
  %35 = load i32, ptr %16, align 4, !tbaa !44
  %36 = and i32 %35, 65536
  %37 = icmp ne i32 %36, 0
  br i1 %37, label %38, label %59

38:                                               ; preds = %34
  %39 = load ptr, ptr %13, align 8, !tbaa !9
  %40 = load ptr, ptr %14, align 8, !tbaa !8
  %41 = call ptr @strdup_and_subst_obj(ptr noundef %39, ptr noundef %40)
  %42 = load ptr, ptr %15, align 8, !tbaa !14
  %43 = getelementptr inbounds nuw %struct.obj_state_s, ptr %42, i32 0, i32 21
  store ptr %41, ptr %43, align 8, !tbaa !50
  %44 = load ptr, ptr %10, align 8, !tbaa !9
  %45 = icmp ne ptr %44, null
  br i1 %45, label %46, label %58

46:                                               ; preds = %38
  %47 = load ptr, ptr %10, align 8, !tbaa !9
  %48 = getelementptr inbounds i8, ptr %47, i64 0
  %49 = load i8, ptr %48, align 1, !tbaa !11
  %50 = sext i8 %49 to i32
  %51 = icmp ne i32 %50, 0
  br i1 %51, label %52, label %58

52:                                               ; preds = %46
  %53 = load ptr, ptr %10, align 8, !tbaa !9
  %54 = load ptr, ptr %14, align 8, !tbaa !8
  %55 = call ptr @strdup_and_subst_obj(ptr noundef %53, ptr noundef %54)
  %56 = load ptr, ptr %15, align 8, !tbaa !14
  %57 = getelementptr inbounds nuw %struct.obj_state_s, ptr %56, i32 0, i32 20
  store ptr %55, ptr %57, align 8, !tbaa !51
  store i32 1, ptr %17, align 4, !tbaa !44
  br label %58

58:                                               ; preds = %52, %46, %38
  br label %59

59:                                               ; preds = %58, %34
  %60 = load i32, ptr %16, align 4, !tbaa !44
  %61 = and i32 %60, 4194304
  %62 = icmp ne i32 %61, 0
  br i1 %62, label %63, label %97

63:                                               ; preds = %59
  %64 = load ptr, ptr %11, align 8, !tbaa !9
  %65 = icmp ne ptr %64, null
  br i1 %65, label %66, label %83

66:                                               ; preds = %63
  %67 = load ptr, ptr %11, align 8, !tbaa !9
  %68 = getelementptr inbounds i8, ptr %67, i64 0
  %69 = load i8, ptr %68, align 1, !tbaa !11
  %70 = sext i8 %69 to i32
  %71 = icmp ne i32 %70, 0
  br i1 %71, label %72, label %83

72:                                               ; preds = %66
  %73 = load ptr, ptr %11, align 8, !tbaa !9
  %74 = load ptr, ptr %14, align 8, !tbaa !8
  %75 = call ptr @strdup_and_subst_obj(ptr noundef %73, ptr noundef %74)
  %76 = load ptr, ptr %15, align 8, !tbaa !14
  %77 = getelementptr inbounds nuw %struct.obj_state_s, ptr %76, i32 0, i32 25
  store ptr %75, ptr %77, align 8, !tbaa !55
  %78 = load ptr, ptr %15, align 8, !tbaa !14
  %79 = getelementptr inbounds nuw %struct.obj_state_s, ptr %78, i32 0, i32 33
  %80 = load i16, ptr %79, align 8
  %81 = and i16 %80, -2
  %82 = or i16 %81, 1
  store i16 %82, ptr %79, align 8
  store i32 1, ptr %17, align 4, !tbaa !44
  br label %96

83:                                               ; preds = %66, %63
  %84 = load ptr, ptr %15, align 8, !tbaa !14
  %85 = getelementptr inbounds nuw %struct.obj_state_s, ptr %84, i32 0, i32 16
  %86 = load ptr, ptr %85, align 8, !tbaa !67
  %87 = icmp ne ptr %86, null
  br i1 %87, label %88, label %95

88:                                               ; preds = %83
  %89 = load ptr, ptr %15, align 8, !tbaa !14
  %90 = getelementptr inbounds nuw %struct.obj_state_s, ptr %89, i32 0, i32 16
  %91 = load ptr, ptr %90, align 8, !tbaa !67
  %92 = call ptr @gv_strdup(ptr noundef %91)
  %93 = load ptr, ptr %15, align 8, !tbaa !14
  %94 = getelementptr inbounds nuw %struct.obj_state_s, ptr %93, i32 0, i32 25
  store ptr %92, ptr %94, align 8, !tbaa !55
  store i32 1, ptr %17, align 4, !tbaa !44
  br label %95

95:                                               ; preds = %88, %83
  br label %96

96:                                               ; preds = %95, %72
  br label %97

97:                                               ; preds = %96, %59
  %98 = load i32, ptr %16, align 4, !tbaa !44
  %99 = and i32 %98, 8388608
  %100 = icmp ne i32 %99, 0
  br i1 %100, label %101, label %116

101:                                              ; preds = %97
  %102 = load ptr, ptr %12, align 8, !tbaa !9
  %103 = icmp ne ptr %102, null
  br i1 %103, label %104, label %116

104:                                              ; preds = %101
  %105 = load ptr, ptr %12, align 8, !tbaa !9
  %106 = getelementptr inbounds i8, ptr %105, i64 0
  %107 = load i8, ptr %106, align 1, !tbaa !11
  %108 = sext i8 %107 to i32
  %109 = icmp ne i32 %108, 0
  br i1 %109, label %110, label %116

110:                                              ; preds = %104
  %111 = load ptr, ptr %12, align 8, !tbaa !9
  %112 = load ptr, ptr %14, align 8, !tbaa !8
  %113 = call ptr @strdup_and_subst_obj(ptr noundef %111, ptr noundef %112)
  %114 = load ptr, ptr %15, align 8, !tbaa !14
  %115 = getelementptr inbounds nuw %struct.obj_state_s, ptr %114, i32 0, i32 29
  store ptr %113, ptr %115, align 8, !tbaa !59
  store i32 1, ptr %17, align 4, !tbaa !44
  br label %116

116:                                              ; preds = %110, %104, %101, %97
  %117 = load i32, ptr %17, align 4, !tbaa !44
  call void @llvm.lifetime.end.p0(i64 4, ptr %17) #15
  call void @llvm.lifetime.end.p0(i64 4, ptr %16) #15
  call void @llvm.lifetime.end.p0(i64 8, ptr %15) #15
  ret i32 %117
}