; Function Attrs: nounwind uwtable
define range(i32 0, 2) i32 @initMapData(ptr noundef readonly captures(none) %0, ptr noundef %1, ptr noundef %2, ptr noundef %3, ptr noundef %4, ptr noundef %5, ptr noundef %6) local_unnamed_addr #0 {
  %8 = getelementptr inbounds nuw i8, ptr %0, i64 32
  %9 = load ptr, ptr %8, align 8, !tbaa !9
  %10 = getelementptr inbounds nuw i8, ptr %0, i64 280
  %11 = load i32, ptr %10, align 8, !tbaa !60
  %12 = and i32 %11, 32768
  %13 = icmp ne i32 %12, 0
  %14 = icmp ne ptr %1, null
  %or.cond = and i1 %14, %13
  br i1 %or.cond, label %15, label %17

15:                                               ; preds = %7
  %16 = getelementptr inbounds nuw i8, ptr %9, i64 216
  store ptr %1, ptr %16, align 8, !tbaa !61
  br label %17

17:                                               ; preds = %15, %7
  %18 = and i32 %11, 65536
  %.not = icmp eq i32 %18, 0
  br i1 %.not, label %27, label %19

19:                                               ; preds = %17
  %20 = tail call ptr @strdup_and_subst_obj(ptr noundef %5, ptr noundef %6) #27
  %21 = getelementptr inbounds nuw i8, ptr %9, i64 256
  store ptr %20, ptr %21, align 8, !tbaa !44
  %.not39 = icmp eq ptr %2, null
  br i1 %.not39, label %27, label %22

22:                                               ; preds = %19
  %23 = load i8, ptr %2, align 1, !tbaa !3
  %.not40 = icmp eq i8 %23, 0
  br i1 %.not40, label %27, label %24

24:                                               ; preds = %22
  %25 = tail call ptr @strdup_and_subst_obj(ptr noundef nonnull %2, ptr noundef %6) #27
  %26 = getelementptr inbounds nuw i8, ptr %9, i64 248
  store ptr %25, ptr %26, align 8, !tbaa !45
  br label %27

27:                                               ; preds = %19, %22, %24, %17
  %.0 = phi i32 [ 1, %24 ], [ 0, %22 ], [ 0, %19 ], [ 0, %17 ]
  %28 = and i32 %11, 4194304
  %.not41 = icmp eq i32 %28, 0
  br i1 %.not41, label %50, label %29

29:                                               ; preds = %27
  %.not42 = icmp eq ptr %3, null
  br i1 %.not42, label %38, label %30

30:                                               ; preds = %29
  %31 = load i8, ptr %3, align 1, !tbaa !3
  %.not43 = icmp eq i8 %31, 0
  br i1 %.not43, label %38, label %32

32:                                               ; preds = %30
  %33 = tail call ptr @strdup_and_subst_obj(ptr noundef nonnull %3, ptr noundef %6) #27
  %34 = getelementptr inbounds nuw i8, ptr %9, i64 288
  store ptr %33, ptr %34, align 8, !tbaa !49
  %35 = getelementptr inbounds nuw i8, ptr %9, i64 352
  %36 = load i16, ptr %35, align 8
  %37 = or i16 %36, 1
  store i16 %37, ptr %35, align 8
  br label %50

38:                                               ; preds = %30, %29
  %39 = getelementptr inbounds nuw i8, ptr %9, i64 216
  %40 = load ptr, ptr %39, align 8, !tbaa !61
  %.not44 = icmp eq ptr %40, null
  br i1 %.not44, label %50, label %41

41:                                               ; preds = %38
  %42 = tail call noalias ptr @strdup(ptr noundef nonnull readonly %40) #27
  %43 = icmp eq ptr %42, null
  br i1 %43, label %44, label %gv_strdup.exit

44:                                               ; preds = %41
  %45 = load ptr, ptr @stderr, align 8, !tbaa !6
  %46 = tail call i64 @strlen(ptr noundef nonnull readonly dereferenceable(1) %40) #31
  %47 = add i64 %46, 1
  %48 = tail call i32 (ptr, ptr, ...) @fprintf(ptr noundef %45, ptr noundef nonnull @.str.41, i64 noundef %47) #29
  tail call fastcc void @graphviz_exit() #30
  unreachable

gv_strdup.exit:                                   ; preds = %41
  %49 = getelementptr inbounds nuw i8, ptr %9, i64 288
  store ptr %42, ptr %49, align 8, !tbaa !49
  br label %50

50:                                               ; preds = %32, %gv_strdup.exit, %38, %27
  %.1 = phi i32 [ 1, %32 ], [ 1, %gv_strdup.exit ], [ %.0, %38 ], [ %.0, %27 ]
  %51 = and i32 %11, 8388608
  %52 = icmp ne i32 %51, 0
  %53 = icmp ne ptr %4, null
  %or.cond3 = and i1 %53, %52
  br i1 %or.cond3, label %54, label %59

54:                                               ; preds = %50
  %55 = load i8, ptr %4, align 1, !tbaa !3
  %.not45 = icmp eq i8 %55, 0
  br i1 %.not45, label %59, label %56

56:                                               ; preds = %54
  %57 = tail call ptr @strdup_and_subst_obj(ptr noundef nonnull %4, ptr noundef %6) #27
  %58 = getelementptr inbounds nuw i8, ptr %9, i64 320
  store ptr %57, ptr %58, align 8, !tbaa !53
  br label %59

59:                                               ; preds = %56, %54, %50
  %.2 = phi i32 [ 1, %56 ], [ %.1, %54 ], [ %.1, %50 ]
  ret i32 %.2
}